target datalayout = "e-m:e-p270:32:32-p271:32:32-p272:64:64-i64:64-i128:128-f80:128-n8:16:32:64-S128"
target triple = "x86_64-pc-linux-gnu"

@systemCaDirs = internal global [3 x ptr] [ptr @.str.4, ptr @.str.5, ptr @.str.6], align 16

; Function Attrs: nounwind uwtable
define internal i32 @LoadSystemCaCertsNix(ptr noundef %0, ptr noundef %1) #0 {
  %3 = alloca ptr, align 8
  %4 = alloca ptr, align 8
  %5 = alloca i32, align 4
  %6 = alloca i32, align 4
  store ptr %0, ptr %3, align 8, !tbaa !24
  store ptr %1, ptr %4, align 8, !tbaa !21
  call void @llvm.lifetime.start.p0(i64 4, ptr %5) #9
  store i32 1, ptr %5, align 4, !tbaa !7
  call void @llvm.lifetime.start.p0(i64 4, ptr %6) #9
  %7 = load ptr, ptr %3, align 8, !tbaa !24
  %8 = icmp eq ptr %7, null
  br i1 %8, label %12, label %9

9:                                                ; preds = %2
  %10 = load ptr, ptr %4, align 8, !tbaa !21
  %11 = icmp eq ptr %10, null
  br i1 %11, label %12, label %13

12:                                               ; preds = %9, %2
  store i32 0, ptr %5, align 4, !tbaa !7
  br label %13

13:                                               ; preds = %12, %9
  store i32 0, ptr %6, align 4, !tbaa !7
  br label %14

14:                                               ; preds = %44, %13
  %15 = load i32, ptr %5, align 4, !tbaa !7
  %16 = icmp eq i32 %15, 1
  br i1 %16, label %17, label %21

17:                                               ; preds = %14
  %18 = load i32, ptr %6, align 4, !tbaa !7
  %19 = zext i32 %18 to i64
  %20 = icmp ult i64 %19, 3
  br label %21

21:                                               ; preds = %17, %14
  %22 = phi i1 [ false, %14 ], [ %20, %17 ]
  br i1 %22, label %23, label %47

23:                                               ; preds = %21
  br label %24

24:                                               ; preds = %23
  br label %25

25:                                               ; preds = %24
  br label %26

26:                                               ; preds = %25
  %27 = load ptr, ptr %3, align 8, !tbaa !24
  %28 = load i32, ptr %6, align 4, !tbaa !7
  %29 = zext i32 %28 to i64
  %30 = getelementptr inbounds nuw [3 x ptr], ptr @systemCaDirs, i64 0, i64 %29
  %31 = load ptr, ptr %30, align 8, !tbaa !21
  %32 = call i32 @wolfSSL_CTX_load_verify_locations_ex(ptr noundef %27, ptr noundef null, ptr noundef %31, i32 noundef 1)
  %33 = icmp ne i32 %32, 1
  br i1 %33, label %34, label %38

34:                                               ; preds = %26
  br label %35

35:                                               ; preds = %34
  br label %36

36:                                               ; preds = %35
  br label %37

37:                                               ; preds = %36
  br label %43

38:                                               ; preds = %26
  br label %39

39:                                               ; preds = %38
  br label %40

40:                                               ; preds = %39
  br label %41

41:                                               ; preds = %40
  %42 = load ptr, ptr %4, align 8, !tbaa !21
  store i8 1, ptr %42, align 1, !tbaa !20
  br label %47

43:                                               ; preds = %37
  br label %44

44:                                               ; preds = %43
  %45 = load i32, ptr %6, align 4, !tbaa !7
  %46 = add i32 %45, 1
  store i32 %46, ptr %6, align 4, !tbaa !7
  br label %14, !llvm.loop !237

47:                                               ; preds = %41, %21
  %48 = load i32, ptr %5, align 4, !tbaa !7
  call void @llvm.lifetime.end.p0(i64 4, ptr %6) #9
  call void @llvm.lifetime.end.p0(i64 4, ptr %5) #9
  ret i32 %48
}

; Function Attrs: nounwind uwtable
define i32 @wolfSSL_CTX_load_system_CA_certs(ptr noundef %0) #0 {
  %2 = alloca ptr, align 8
  %3 = alloca i32, align 4
  %4 = alloca i8, align 1
  store ptr %0, ptr %2, align 8, !tbaa !24
  call void @llvm.lifetime.start.p0(i64 4, ptr %3) #9
  call void @llvm.lifetime.start.p0(i64 1, ptr %4) #9
  store i8 0, ptr %4, align 1, !tbaa !20
  br label %5

5:                                                ; preds = %1
  br label %6

6:                                                ; preds = %5
  br label %7

7:                                                ; preds = %6
  %8 = load ptr, ptr %2, align 8, !tbaa !24
  %9 = call i32 @LoadSystemCaCertsNix(ptr noundef %8, ptr noundef %4)
  store i32 %9, ptr %3, align 4, !tbaa !7
  %10 = load i32, ptr %3, align 4, !tbaa !7
  %11 = icmp eq i32 %10, 1
  br i1 %11, label %12, label %16

12:                                               ; preds = %7
  %13 = load i8, ptr %4, align 1, !tbaa !20
  %14 = icmp ne i8 %13, 0
  br i1 %14, label %16, label %15

15:                                               ; preds = %12
  store i32 -461, ptr %3, align 4, !tbaa !7
  br label %16

16:                                               ; preds = %15, %12, %7
  br label %17

17:                                               ; preds = %16
  br label %18

18:                                               ; preds = %17
  br label %19

19:                                               ; preds = %18
  %20 = load i32, ptr %3, align 4, !tbaa !7
  call void @llvm.lifetime.end.p0(i64 1, ptr %4) #9
  call void @llvm.lifetime.end.p0(i64 4, ptr %3) #9
  ret i32 %20
}